target datalayout = "e-m:e-p270:32:32-p271:32:32-p272:64:64-i64:64-i128:128-f80:128-n8:16:32:64-S128"
target triple = "x86_64-pc-linux-gnu"

%struct._address = type { i32, i32, ptr, ptr }
%struct._packet_info = type { ptr, ptr, i32, i32, %struct.nstime_t, %struct.nstime_t, %struct.nstime_t, i32, ptr, ptr, ptr, ptr, %struct._address, %struct._address, %struct._address, %struct._address, %struct._address, %struct._address, i32, ptr, i32, %struct.anon, i32, i32, i32, i32, ptr, i32, ptr, ptr, i16, i16, i32, i32, i16, i32, i32, ptr, ptr, ptr, i8, i8, i16, i16, i16, i32, i16, i16, ptr, ptr, ptr, ptr, ptr, i32 }
%struct.nstime_t = type { i64, i32 }
%struct.anon = type { i8, [3 x i8] }

@proto_ltp = internal global i32 0, align 4
@.str.204 = private unnamed_addr constant [25 x i8] c"ltp.session.name == \22%s\22\00", align 1
@.str.205 = private unnamed_addr constant [5 x i8] c" || \00", align 1

; Function Attrs: nounwind uwtable
define internal ptr @ltp_build_filter(ptr noundef %0, ptr noundef %1) #0 {
  %3 = alloca ptr, align 8
  %4 = alloca ptr, align 8
  %5 = alloca ptr, align 8
  %6 = alloca i32, align 4
  %7 = alloca ptr, align 8
  %8 = alloca i32, align 4
  %9 = alloca ptr, align 8
  %10 = alloca ptr, align 8
  %11 = alloca ptr, align 8
  store ptr %0, ptr %3, align 8
  store ptr %1, ptr %4, align 8
  store ptr null, ptr %5, align 8
  store i32 1, ptr %6, align 4
  %12 = load ptr, ptr %3, align 8
  %13 = getelementptr inbounds %struct._packet_info, ptr %12, i32 0, i32 38
  %14 = load ptr, ptr %13, align 8
  %15 = call ptr @wmem_list_head(ptr noundef %14)
  store ptr %15, ptr %7, align 8
  br label %16

16:                                               ; preds = %54, %2
  %17 = load ptr, ptr %7, align 8
  %18 = icmp ne ptr %17, null
  br i1 %18, label %19, label %59

19:                                               ; preds = %16
  %20 = load ptr, ptr %7, align 8
  %21 = call ptr @wmem_list_frame_data(ptr noundef %20)
  %22 = ptrtoint ptr %21 to i64
  %23 = trunc i64 %22 to i32
  store i32 %23, ptr %8, align 4
  %24 = load i32, ptr %8, align 4
  %25 = load i32, ptr @proto_ltp, align 4
  %26 = icmp ne i32 %24, %25
  br i1 %26, label %27, label %28

27:                                               ; preds = %19
  br label %54

28:                                               ; preds = %19
  %29 = load ptr, ptr %3, align 8
  %30 = getelementptr inbounds %struct._packet_info, ptr %29, i32 0, i32 50
  %31 = load ptr, ptr %30, align 8
  %32 = load ptr, ptr %3, align 8
  %33 = load i32, ptr @proto_ltp, align 4
  %34 = load i32, ptr %6, align 4
  %35 = call ptr @p_get_proto_data(ptr noundef %31, ptr noundef %32, i32 noundef %33, i32 noundef %34)
  store ptr %35, ptr %9, align 8
  %36 = load ptr, ptr %9, align 8
  %37 = icmp ne ptr %36, null
  br i1 %37, label %39, label %38

38:                                               ; preds = %28
  br label %54

39:                                               ; preds = %28
  %40 = load ptr, ptr %9, align 8
  %41 = call noalias ptr (ptr, ...) @g_strdup_printf(ptr noundef @.str.204, ptr noundef %40)
  store ptr %41, ptr %10, align 8
  %42 = load ptr, ptr %5, align 8
  %43 = icmp ne ptr %42, null
  br i1 %43, label %44, label %51

44:                                               ; preds = %39
  %45 = load ptr, ptr %5, align 8
  store ptr %45, ptr %11, align 8
  %46 = load ptr, ptr %11, align 8
  %47 = load ptr, ptr %10, align 8
  %48 = call noalias ptr (ptr, ...) @g_strjoin(ptr noundef @.str.205, ptr noundef %46, ptr noundef %47, ptr noundef null)
  store ptr %48, ptr %5, align 8
  %49 = load ptr, ptr %11, align 8
  call void @g_free(ptr noundef %49)
  %50 = load ptr, ptr %10, align 8
  call void @g_free(ptr noundef %50)
  br label %53

51:                                               ; preds = %39
  %52 = load ptr, ptr %10, align 8
  store ptr %52, ptr %5, align 8
  br label %53

53:                                               ; preds = %51, %44
  br label %54

54:                                               ; preds = %53, %38, %27
  %55 = load ptr, ptr %7, align 8
  %56 = call ptr @wmem_list_frame_next(ptr noundef %55)
  store ptr %56, ptr %7, align 8
  %57 = load i32, ptr %6, align 4
  %58 = add i32 %57, 1
  store i32 %58, ptr %6, align 4
  br label %16, !llvm.loop !6

59:                                               ; preds = %16
  %60 = load ptr, ptr %5, align 8
  ret ptr %60
}