; Function Attrs: nounwind uwtable
define internal ptr @ltp_build_filter(ptr noundef %0, ptr readnone captures(none) %1) #0 {
  %3 = getelementptr inbounds nuw i8, ptr %0, i64 360
  %4 = load ptr, ptr %3, align 8
  %5 = tail call ptr @wmem_list_head(ptr noundef %4) #8
  %.not25 = icmp eq ptr %5, null
  br i1 %.not25, label %._crit_edge, label %.lr.ph

.lr.ph:                                           ; preds = %2
  %6 = getelementptr inbounds nuw i8, ptr %0, i64 408
  br label %7

7:                                                ; preds = %.lr.ph, %19
  %.028 = phi ptr [ null, %.lr.ph ], [ %.1, %19 ]
  %.01827 = phi i32 [ 1, %.lr.ph ], [ %21, %19 ]
  %.01926 = phi ptr [ %5, %.lr.ph ], [ %20, %19 ]
  %8 = tail call ptr @wmem_list_frame_data(ptr noundef nonnull %.01926) #8
  %9 = ptrtoint ptr %8 to i64
  %10 = trunc i64 %9 to i32
  %11 = load i32, ptr @proto_ltp, align 4
  %.not22 = icmp eq i32 %11, %10
  br i1 %.not22, label %12, label %19

12:                                               ; preds = %7
  %13 = load ptr, ptr %6, align 8
  %14 = tail call ptr @p_get_proto_data(ptr noundef %13, ptr noundef %0, i32 noundef %10, i32 noundef %.01827) #8
  %.not23 = icmp eq ptr %14, null
  br i1 %.not23, label %19, label %15

15:                                               ; preds = %12
  %16 = tail call noalias ptr (ptr, ...) @g_strdup_printf(ptr noundef nonnull @.str.204, ptr noundef nonnull %14) #8
  %.not24 = icmp eq ptr %.028, null
  br i1 %.not24, label %19, label %17

17:                                               ; preds = %15
  %18 = tail call noalias ptr (ptr, ...) @g_strjoin(ptr noundef nonnull @.str.205, ptr noundef nonnull %.028, ptr noundef %16, ptr noundef null) #8
  tail call void @g_free(ptr noundef nonnull %.028) #8
  tail call void @g_free(ptr noundef %16) #8
  br label %19

19:                                               ; preds = %15, %17, %12, %7
  %.1 = phi ptr [ %.028, %7 ], [ %18, %17 ], [ %.028, %12 ], [ %16, %15 ]
  %20 = tail call ptr @wmem_list_frame_next(ptr noundef nonnull %.01926) #8
  %21 = add i32 %.01827, 1
  %.not = icmp eq ptr %20, null
  br i1 %.not, label %._crit_edge, label %7, !llvm.loop !13

._crit_edge:                                      ; preds = %19, %2
  %.0.lcssa = phi ptr [ null, %2 ], [ %.1, %19 ]
  ret ptr %.0.lcssa
}